; Function Attrs: nounwind uwtable
define internal void @storeBitmap(ptr noundef captures(none) %0, ptr noundef %1, i64 %2, i1 zeroext %3, ptr readnone captures(none) %4, i1 noundef zeroext %5, i1 zeroext %6, ptr readnone captures(none) %7) #0 {
  %9 = getelementptr inbounds nuw i8, ptr %0, i64 288
  %10 = load ptr, ptr %9, align 8
  tail call void @tbm_add_tuples(ptr noundef %10, ptr noundef %1, i32 noundef 1, i1 noundef zeroext %5) #8
  %11 = getelementptr inbounds nuw i8, ptr %0, i64 296
  %12 = load i64, ptr %11, align 8
  %13 = add i64 %12, 1
  store i64 %13, ptr %11, align 8
  ret void
}